
;CodeVisionAVR C Compiler V3.12 Advanced
;(C) Copyright 1998-2014 Pavel Haiduc, HP InfoTech s.r.l.
;http://www.hpinfotech.com

;Build configuration    : Debug
;Chip type              : ATmega8A
;Program type           : Application
;Clock frequency        : 16.000000 MHz
;Memory model           : Small
;Optimize for           : Size
;(s)printf features     : int, width
;(s)scanf features      : int, width
;External RAM size      : 0
;Data Stack size        : 256 byte(s)
;Heap size              : 0 byte(s)
;Promote 'char' to 'int': Yes
;'char' is unsigned     : Yes
;8 bit enums            : Yes
;Global 'const' stored in FLASH: Yes
;Enhanced function parameter passing: Yes
;Enhanced core instructions: On
;Automatic register allocation for global variables: On
;Smart register allocation: On

	#define _MODEL_SMALL_

	#pragma AVRPART ADMIN PART_NAME ATmega8A
	#pragma AVRPART MEMORY PROG_FLASH 8192
	#pragma AVRPART MEMORY EEPROM 512
	#pragma AVRPART MEMORY INT_SRAM SIZE 1024
	#pragma AVRPART MEMORY INT_SRAM START_ADDR 0x60

	.LISTMAC
	.EQU UDRE=0x5
	.EQU RXC=0x7
	.EQU USR=0xB
	.EQU UDR=0xC
	.EQU SPSR=0xE
	.EQU SPDR=0xF
	.EQU EERE=0x0
	.EQU EEWE=0x1
	.EQU EEMWE=0x2
	.EQU EECR=0x1C
	.EQU EEDR=0x1D
	.EQU EEARL=0x1E
	.EQU EEARH=0x1F
	.EQU WDTCR=0x21
	.EQU MCUCR=0x35
	.EQU GICR=0x3B
	.EQU SPL=0x3D
	.EQU SPH=0x3E
	.EQU SREG=0x3F

	.DEF R0X0=R0
	.DEF R0X1=R1
	.DEF R0X2=R2
	.DEF R0X3=R3
	.DEF R0X4=R4
	.DEF R0X5=R5
	.DEF R0X6=R6
	.DEF R0X7=R7
	.DEF R0X8=R8
	.DEF R0X9=R9
	.DEF R0XA=R10
	.DEF R0XB=R11
	.DEF R0XC=R12
	.DEF R0XD=R13
	.DEF R0XE=R14
	.DEF R0XF=R15
	.DEF R0X10=R16
	.DEF R0X11=R17
	.DEF R0X12=R18
	.DEF R0X13=R19
	.DEF R0X14=R20
	.DEF R0X15=R21
	.DEF R0X16=R22
	.DEF R0X17=R23
	.DEF R0X18=R24
	.DEF R0X19=R25
	.DEF R0X1A=R26
	.DEF R0X1B=R27
	.DEF R0X1C=R28
	.DEF R0X1D=R29
	.DEF R0X1E=R30
	.DEF R0X1F=R31

	.EQU __SRAM_START=0x0060
	.EQU __SRAM_END=0x045F
	.EQU __DSTACK_SIZE=0x0100
	.EQU __HEAP_SIZE=0x0000
	.EQU __CLEAR_SRAM_SIZE=__SRAM_END-__SRAM_START+1

	.MACRO __CPD1N
	CPI  R30,LOW(@0)
	LDI  R26,HIGH(@0)
	CPC  R31,R26
	LDI  R26,BYTE3(@0)
	CPC  R22,R26
	LDI  R26,BYTE4(@0)
	CPC  R23,R26
	.ENDM

	.MACRO __CPD2N
	CPI  R26,LOW(@0)
	LDI  R30,HIGH(@0)
	CPC  R27,R30
	LDI  R30,BYTE3(@0)
	CPC  R24,R30
	LDI  R30,BYTE4(@0)
	CPC  R25,R30
	.ENDM

	.MACRO __CPWRR
	CP   R@0,R@2
	CPC  R@1,R@3
	.ENDM

	.MACRO __CPWRN
	CPI  R@0,LOW(@2)
	LDI  R30,HIGH(@2)
	CPC  R@1,R30
	.ENDM

	.MACRO __ADDB1MN
	SUBI R30,LOW(-@0-(@1))
	.ENDM

	.MACRO __ADDB2MN
	SUBI R26,LOW(-@0-(@1))
	.ENDM

	.MACRO __ADDW1MN
	SUBI R30,LOW(-@0-(@1))
	SBCI R31,HIGH(-@0-(@1))
	.ENDM

	.MACRO __ADDW2MN
	SUBI R26,LOW(-@0-(@1))
	SBCI R27,HIGH(-@0-(@1))
	.ENDM

	.MACRO __ADDW1FN
	SUBI R30,LOW(-2*@0-(@1))
	SBCI R31,HIGH(-2*@0-(@1))
	.ENDM

	.MACRO __ADDD1FN
	SUBI R30,LOW(-2*@0-(@1))
	SBCI R31,HIGH(-2*@0-(@1))
	SBCI R22,BYTE3(-2*@0-(@1))
	.ENDM

	.MACRO __ADDD1N
	SUBI R30,LOW(-@0)
	SBCI R31,HIGH(-@0)
	SBCI R22,BYTE3(-@0)
	SBCI R23,BYTE4(-@0)
	.ENDM

	.MACRO __ADDD2N
	SUBI R26,LOW(-@0)
	SBCI R27,HIGH(-@0)
	SBCI R24,BYTE3(-@0)
	SBCI R25,BYTE4(-@0)
	.ENDM

	.MACRO __SUBD1N
	SUBI R30,LOW(@0)
	SBCI R31,HIGH(@0)
	SBCI R22,BYTE3(@0)
	SBCI R23,BYTE4(@0)
	.ENDM

	.MACRO __SUBD2N
	SUBI R26,LOW(@0)
	SBCI R27,HIGH(@0)
	SBCI R24,BYTE3(@0)
	SBCI R25,BYTE4(@0)
	.ENDM

	.MACRO __ANDBMNN
	LDS  R30,@0+(@1)
	ANDI R30,LOW(@2)
	STS  @0+(@1),R30
	.ENDM

	.MACRO __ANDWMNN
	LDS  R30,@0+(@1)
	ANDI R30,LOW(@2)
	STS  @0+(@1),R30
	LDS  R30,@0+(@1)+1
	ANDI R30,HIGH(@2)
	STS  @0+(@1)+1,R30
	.ENDM

	.MACRO __ANDD1N
	ANDI R30,LOW(@0)
	ANDI R31,HIGH(@0)
	ANDI R22,BYTE3(@0)
	ANDI R23,BYTE4(@0)
	.ENDM

	.MACRO __ANDD2N
	ANDI R26,LOW(@0)
	ANDI R27,HIGH(@0)
	ANDI R24,BYTE3(@0)
	ANDI R25,BYTE4(@0)
	.ENDM

	.MACRO __ORBMNN
	LDS  R30,@0+(@1)
	ORI  R30,LOW(@2)
	STS  @0+(@1),R30
	.ENDM

	.MACRO __ORWMNN
	LDS  R30,@0+(@1)
	ORI  R30,LOW(@2)
	STS  @0+(@1),R30
	LDS  R30,@0+(@1)+1
	ORI  R30,HIGH(@2)
	STS  @0+(@1)+1,R30
	.ENDM

	.MACRO __ORD1N
	ORI  R30,LOW(@0)
	ORI  R31,HIGH(@0)
	ORI  R22,BYTE3(@0)
	ORI  R23,BYTE4(@0)
	.ENDM

	.MACRO __ORD2N
	ORI  R26,LOW(@0)
	ORI  R27,HIGH(@0)
	ORI  R24,BYTE3(@0)
	ORI  R25,BYTE4(@0)
	.ENDM

	.MACRO __DELAY_USB
	LDI  R24,LOW(@0)
__DELAY_USB_LOOP:
	DEC  R24
	BRNE __DELAY_USB_LOOP
	.ENDM

	.MACRO __DELAY_USW
	LDI  R24,LOW(@0)
	LDI  R25,HIGH(@0)
__DELAY_USW_LOOP:
	SBIW R24,1
	BRNE __DELAY_USW_LOOP
	.ENDM

	.MACRO __GETD1S
	LDD  R30,Y+@0
	LDD  R31,Y+@0+1
	LDD  R22,Y+@0+2
	LDD  R23,Y+@0+3
	.ENDM

	.MACRO __GETD2S
	LDD  R26,Y+@0
	LDD  R27,Y+@0+1
	LDD  R24,Y+@0+2
	LDD  R25,Y+@0+3
	.ENDM

	.MACRO __PUTD1S
	STD  Y+@0,R30
	STD  Y+@0+1,R31
	STD  Y+@0+2,R22
	STD  Y+@0+3,R23
	.ENDM

	.MACRO __PUTD2S
	STD  Y+@0,R26
	STD  Y+@0+1,R27
	STD  Y+@0+2,R24
	STD  Y+@0+3,R25
	.ENDM

	.MACRO __PUTDZ2
	STD  Z+@0,R26
	STD  Z+@0+1,R27
	STD  Z+@0+2,R24
	STD  Z+@0+3,R25
	.ENDM

	.MACRO __CLRD1S
	STD  Y+@0,R30
	STD  Y+@0+1,R30
	STD  Y+@0+2,R30
	STD  Y+@0+3,R30
	.ENDM

	.MACRO __POINTB1MN
	LDI  R30,LOW(@0+(@1))
	.ENDM

	.MACRO __POINTW1MN
	LDI  R30,LOW(@0+(@1))
	LDI  R31,HIGH(@0+(@1))
	.ENDM

	.MACRO __POINTD1M
	LDI  R30,LOW(@0)
	LDI  R31,HIGH(@0)
	LDI  R22,BYTE3(@0)
	LDI  R23,BYTE4(@0)
	.ENDM

	.MACRO __POINTW1FN
	LDI  R30,LOW(2*@0+(@1))
	LDI  R31,HIGH(2*@0+(@1))
	.ENDM

	.MACRO __POINTD1FN
	LDI  R30,LOW(2*@0+(@1))
	LDI  R31,HIGH(2*@0+(@1))
	LDI  R22,BYTE3(2*@0+(@1))
	LDI  R23,BYTE4(2*@0+(@1))
	.ENDM

	.MACRO __POINTB2MN
	LDI  R26,LOW(@0+(@1))
	.ENDM

	.MACRO __POINTW2MN
	LDI  R26,LOW(@0+(@1))
	LDI  R27,HIGH(@0+(@1))
	.ENDM

	.MACRO __POINTW2FN
	LDI  R26,LOW(2*@0+(@1))
	LDI  R27,HIGH(2*@0+(@1))
	.ENDM

	.MACRO __POINTD2FN
	LDI  R26,LOW(2*@0+(@1))
	LDI  R27,HIGH(2*@0+(@1))
	LDI  R24,BYTE3(2*@0+(@1))
	LDI  R25,BYTE4(2*@0+(@1))
	.ENDM

	.MACRO __POINTBRM
	LDI  R@0,LOW(@1)
	.ENDM

	.MACRO __POINTWRM
	LDI  R@0,LOW(@2)
	LDI  R@1,HIGH(@2)
	.ENDM

	.MACRO __POINTBRMN
	LDI  R@0,LOW(@1+(@2))
	.ENDM

	.MACRO __POINTWRMN
	LDI  R@0,LOW(@2+(@3))
	LDI  R@1,HIGH(@2+(@3))
	.ENDM

	.MACRO __POINTWRFN
	LDI  R@0,LOW(@2*2+(@3))
	LDI  R@1,HIGH(@2*2+(@3))
	.ENDM

	.MACRO __GETD1N
	LDI  R30,LOW(@0)
	LDI  R31,HIGH(@0)
	LDI  R22,BYTE3(@0)
	LDI  R23,BYTE4(@0)
	.ENDM

	.MACRO __GETD2N
	LDI  R26,LOW(@0)
	LDI  R27,HIGH(@0)
	LDI  R24,BYTE3(@0)
	LDI  R25,BYTE4(@0)
	.ENDM

	.MACRO __GETB1MN
	LDS  R30,@0+(@1)
	.ENDM

	.MACRO __GETB1HMN
	LDS  R31,@0+(@1)
	.ENDM

	.MACRO __GETW1MN
	LDS  R30,@0+(@1)
	LDS  R31,@0+(@1)+1
	.ENDM

	.MACRO __GETD1MN
	LDS  R30,@0+(@1)
	LDS  R31,@0+(@1)+1
	LDS  R22,@0+(@1)+2
	LDS  R23,@0+(@1)+3
	.ENDM

	.MACRO __GETBRMN
	LDS  R@0,@1+(@2)
	.ENDM

	.MACRO __GETWRMN
	LDS  R@0,@2+(@3)
	LDS  R@1,@2+(@3)+1
	.ENDM

	.MACRO __GETWRZ
	LDD  R@0,Z+@2
	LDD  R@1,Z+@2+1
	.ENDM

	.MACRO __GETD2Z
	LDD  R26,Z+@0
	LDD  R27,Z+@0+1
	LDD  R24,Z+@0+2
	LDD  R25,Z+@0+3
	.ENDM

	.MACRO __GETB2MN
	LDS  R26,@0+(@1)
	.ENDM

	.MACRO __GETW2MN
	LDS  R26,@0+(@1)
	LDS  R27,@0+(@1)+1
	.ENDM

	.MACRO __GETD2MN
	LDS  R26,@0+(@1)
	LDS  R27,@0+(@1)+1
	LDS  R24,@0+(@1)+2
	LDS  R25,@0+(@1)+3
	.ENDM

	.MACRO __PUTB1MN
	STS  @0+(@1),R30
	.ENDM

	.MACRO __PUTW1MN
	STS  @0+(@1),R30
	STS  @0+(@1)+1,R31
	.ENDM

	.MACRO __PUTD1MN
	STS  @0+(@1),R30
	STS  @0+(@1)+1,R31
	STS  @0+(@1)+2,R22
	STS  @0+(@1)+3,R23
	.ENDM

	.MACRO __PUTB1EN
	LDI  R26,LOW(@0+(@1))
	LDI  R27,HIGH(@0+(@1))
	RCALL __EEPROMWRB
	.ENDM

	.MACRO __PUTW1EN
	LDI  R26,LOW(@0+(@1))
	LDI  R27,HIGH(@0+(@1))
	RCALL __EEPROMWRW
	.ENDM

	.MACRO __PUTD1EN
	LDI  R26,LOW(@0+(@1))
	LDI  R27,HIGH(@0+(@1))
	RCALL __EEPROMWRD
	.ENDM

	.MACRO __PUTBR0MN
	STS  @0+(@1),R0
	.ENDM

	.MACRO __PUTBMRN
	STS  @0+(@1),R@2
	.ENDM

	.MACRO __PUTWMRN
	STS  @0+(@1),R@2
	STS  @0+(@1)+1,R@3
	.ENDM

	.MACRO __PUTBZR
	STD  Z+@1,R@0
	.ENDM

	.MACRO __PUTWZR
	STD  Z+@2,R@0
	STD  Z+@2+1,R@1
	.ENDM

	.MACRO __GETW1R
	MOV  R30,R@0
	MOV  R31,R@1
	.ENDM

	.MACRO __GETW2R
	MOV  R26,R@0
	MOV  R27,R@1
	.ENDM

	.MACRO __GETWRN
	LDI  R@0,LOW(@2)
	LDI  R@1,HIGH(@2)
	.ENDM

	.MACRO __PUTW1R
	MOV  R@0,R30
	MOV  R@1,R31
	.ENDM

	.MACRO __PUTW2R
	MOV  R@0,R26
	MOV  R@1,R27
	.ENDM

	.MACRO __ADDWRN
	SUBI R@0,LOW(-@2)
	SBCI R@1,HIGH(-@2)
	.ENDM

	.MACRO __ADDWRR
	ADD  R@0,R@2
	ADC  R@1,R@3
	.ENDM

	.MACRO __SUBWRN
	SUBI R@0,LOW(@2)
	SBCI R@1,HIGH(@2)
	.ENDM

	.MACRO __SUBWRR
	SUB  R@0,R@2
	SBC  R@1,R@3
	.ENDM

	.MACRO __ANDWRN
	ANDI R@0,LOW(@2)
	ANDI R@1,HIGH(@2)
	.ENDM

	.MACRO __ANDWRR
	AND  R@0,R@2
	AND  R@1,R@3
	.ENDM

	.MACRO __ORWRN
	ORI  R@0,LOW(@2)
	ORI  R@1,HIGH(@2)
	.ENDM

	.MACRO __ORWRR
	OR   R@0,R@2
	OR   R@1,R@3
	.ENDM

	.MACRO __EORWRR
	EOR  R@0,R@2
	EOR  R@1,R@3
	.ENDM

	.MACRO __GETWRS
	LDD  R@0,Y+@2
	LDD  R@1,Y+@2+1
	.ENDM

	.MACRO __PUTBSR
	STD  Y+@1,R@0
	.ENDM

	.MACRO __PUTWSR
	STD  Y+@2,R@0
	STD  Y+@2+1,R@1
	.ENDM

	.MACRO __MOVEWRR
	MOV  R@0,R@2
	MOV  R@1,R@3
	.ENDM

	.MACRO __INWR
	IN   R@0,@2
	IN   R@1,@2+1
	.ENDM

	.MACRO __OUTWR
	OUT  @2+1,R@1
	OUT  @2,R@0
	.ENDM

	.MACRO __CALL1MN
	LDS  R30,@0+(@1)
	LDS  R31,@0+(@1)+1
	ICALL
	.ENDM

	.MACRO __CALL1FN
	LDI  R30,LOW(2*@0+(@1))
	LDI  R31,HIGH(2*@0+(@1))
	RCALL __GETW1PF
	ICALL
	.ENDM

	.MACRO __CALL2EN
	PUSH R26
	PUSH R27
	LDI  R26,LOW(@0+(@1))
	LDI  R27,HIGH(@0+(@1))
	RCALL __EEPROMRDW
	POP  R27
	POP  R26
	ICALL
	.ENDM

	.MACRO __CALL2EX
	SUBI R26,LOW(-@0)
	SBCI R27,HIGH(-@0)
	RCALL __EEPROMRDD
	ICALL
	.ENDM

	.MACRO __GETW1STACK
	IN   R30,SPL
	IN   R31,SPH
	ADIW R30,@0+1
	LD   R0,Z+
	LD   R31,Z
	MOV  R30,R0
	.ENDM

	.MACRO __GETD1STACK
	IN   R30,SPL
	IN   R31,SPH
	ADIW R30,@0+1
	LD   R0,Z+
	LD   R1,Z+
	LD   R22,Z
	MOVW R30,R0
	.ENDM

	.MACRO __NBST
	BST  R@0,@1
	IN   R30,SREG
	LDI  R31,0x40
	EOR  R30,R31
	OUT  SREG,R30
	.ENDM


	.MACRO __PUTB1SN
	LDD  R26,Y+@0
	LDD  R27,Y+@0+1
	SUBI R26,LOW(-@1)
	SBCI R27,HIGH(-@1)
	ST   X,R30
	.ENDM

	.MACRO __PUTW1SN
	LDD  R26,Y+@0
	LDD  R27,Y+@0+1
	SUBI R26,LOW(-@1)
	SBCI R27,HIGH(-@1)
	ST   X+,R30
	ST   X,R31
	.ENDM

	.MACRO __PUTD1SN
	LDD  R26,Y+@0
	LDD  R27,Y+@0+1
	SUBI R26,LOW(-@1)
	SBCI R27,HIGH(-@1)
	RCALL __PUTDP1
	.ENDM

	.MACRO __PUTB1SNS
	LDD  R26,Y+@0
	LDD  R27,Y+@0+1
	ADIW R26,@1
	ST   X,R30
	.ENDM

	.MACRO __PUTW1SNS
	LDD  R26,Y+@0
	LDD  R27,Y+@0+1
	ADIW R26,@1
	ST   X+,R30
	ST   X,R31
	.ENDM

	.MACRO __PUTD1SNS
	LDD  R26,Y+@0
	LDD  R27,Y+@0+1
	ADIW R26,@1
	RCALL __PUTDP1
	.ENDM

	.MACRO __PUTB1PMN
	LDS  R26,@0
	LDS  R27,@0+1
	SUBI R26,LOW(-@1)
	SBCI R27,HIGH(-@1)
	ST   X,R30
	.ENDM

	.MACRO __PUTW1PMN
	LDS  R26,@0
	LDS  R27,@0+1
	SUBI R26,LOW(-@1)
	SBCI R27,HIGH(-@1)
	ST   X+,R30
	ST   X,R31
	.ENDM

	.MACRO __PUTD1PMN
	LDS  R26,@0
	LDS  R27,@0+1
	SUBI R26,LOW(-@1)
	SBCI R27,HIGH(-@1)
	RCALL __PUTDP1
	.ENDM

	.MACRO __PUTB1PMNS
	LDS  R26,@0
	LDS  R27,@0+1
	ADIW R26,@1
	ST   X,R30
	.ENDM

	.MACRO __PUTW1PMNS
	LDS  R26,@0
	LDS  R27,@0+1
	ADIW R26,@1
	ST   X+,R30
	ST   X,R31
	.ENDM

	.MACRO __PUTD1PMNS
	LDS  R26,@0
	LDS  R27,@0+1
	ADIW R26,@1
	RCALL __PUTDP1
	.ENDM

	.MACRO __PUTB1RN
	MOVW R26,R@0
	SUBI R26,LOW(-@1)
	SBCI R27,HIGH(-@1)
	ST   X,R30
	.ENDM

	.MACRO __PUTW1RN
	MOVW R26,R@0
	SUBI R26,LOW(-@1)
	SBCI R27,HIGH(-@1)
	ST   X+,R30
	ST   X,R31
	.ENDM

	.MACRO __PUTD1RN
	MOVW R26,R@0
	SUBI R26,LOW(-@1)
	SBCI R27,HIGH(-@1)
	RCALL __PUTDP1
	.ENDM

	.MACRO __PUTB1RNS
	MOVW R26,R@0
	ADIW R26,@1
	ST   X,R30
	.ENDM

	.MACRO __PUTW1RNS
	MOVW R26,R@0
	ADIW R26,@1
	ST   X+,R30
	ST   X,R31
	.ENDM

	.MACRO __PUTD1RNS
	MOVW R26,R@0
	ADIW R26,@1
	RCALL __PUTDP1
	.ENDM

	.MACRO __PUTB1RON
	MOV  R26,R@0
	MOV  R27,R@1
	SUBI R26,LOW(-@2)
	SBCI R27,HIGH(-@2)
	ST   X,R30
	.ENDM

	.MACRO __PUTW1RON
	MOV  R26,R@0
	MOV  R27,R@1
	SUBI R26,LOW(-@2)
	SBCI R27,HIGH(-@2)
	ST   X+,R30
	ST   X,R31
	.ENDM

	.MACRO __PUTD1RON
	MOV  R26,R@0
	MOV  R27,R@1
	SUBI R26,LOW(-@2)
	SBCI R27,HIGH(-@2)
	RCALL __PUTDP1
	.ENDM

	.MACRO __PUTB1RONS
	MOV  R26,R@0
	MOV  R27,R@1
	ADIW R26,@2
	ST   X,R30
	.ENDM

	.MACRO __PUTW1RONS
	MOV  R26,R@0
	MOV  R27,R@1
	ADIW R26,@2
	ST   X+,R30
	ST   X,R31
	.ENDM

	.MACRO __PUTD1RONS
	MOV  R26,R@0
	MOV  R27,R@1
	ADIW R26,@2
	RCALL __PUTDP1
	.ENDM


	.MACRO __GETB1SX
	MOVW R30,R28
	SUBI R30,LOW(-@0)
	SBCI R31,HIGH(-@0)
	LD   R30,Z
	.ENDM

	.MACRO __GETB1HSX
	MOVW R30,R28
	SUBI R30,LOW(-@0)
	SBCI R31,HIGH(-@0)
	LD   R31,Z
	.ENDM

	.MACRO __GETW1SX
	MOVW R30,R28
	SUBI R30,LOW(-@0)
	SBCI R31,HIGH(-@0)
	LD   R0,Z+
	LD   R31,Z
	MOV  R30,R0
	.ENDM

	.MACRO __GETD1SX
	MOVW R30,R28
	SUBI R30,LOW(-@0)
	SBCI R31,HIGH(-@0)
	LD   R0,Z+
	LD   R1,Z+
	LD   R22,Z+
	LD   R23,Z
	MOVW R30,R0
	.ENDM

	.MACRO __GETB2SX
	MOVW R26,R28
	SUBI R26,LOW(-@0)
	SBCI R27,HIGH(-@0)
	LD   R26,X
	.ENDM

	.MACRO __GETW2SX
	MOVW R26,R28
	SUBI R26,LOW(-@0)
	SBCI R27,HIGH(-@0)
	LD   R0,X+
	LD   R27,X
	MOV  R26,R0
	.ENDM

	.MACRO __GETD2SX
	MOVW R26,R28
	SUBI R26,LOW(-@0)
	SBCI R27,HIGH(-@0)
	LD   R0,X+
	LD   R1,X+
	LD   R24,X+
	LD   R25,X
	MOVW R26,R0
	.ENDM

	.MACRO __GETBRSX
	MOVW R30,R28
	SUBI R30,LOW(-@1)
	SBCI R31,HIGH(-@1)
	LD   R@0,Z
	.ENDM

	.MACRO __GETWRSX
	MOVW R30,R28
	SUBI R30,LOW(-@2)
	SBCI R31,HIGH(-@2)
	LD   R@0,Z+
	LD   R@1,Z
	.ENDM

	.MACRO __GETBRSX2
	MOVW R26,R28
	SUBI R26,LOW(-@1)
	SBCI R27,HIGH(-@1)
	LD   R@0,X
	.ENDM

	.MACRO __GETWRSX2
	MOVW R26,R28
	SUBI R26,LOW(-@2)
	SBCI R27,HIGH(-@2)
	LD   R@0,X+
	LD   R@1,X
	.ENDM

	.MACRO __LSLW8SX
	MOVW R30,R28
	SUBI R30,LOW(-@0)
	SBCI R31,HIGH(-@0)
	LD   R31,Z
	CLR  R30
	.ENDM

	.MACRO __PUTB1SX
	MOVW R26,R28
	SUBI R26,LOW(-@0)
	SBCI R27,HIGH(-@0)
	ST   X,R30
	.ENDM

	.MACRO __PUTW1SX
	MOVW R26,R28
	SUBI R26,LOW(-@0)
	SBCI R27,HIGH(-@0)
	ST   X+,R30
	ST   X,R31
	.ENDM

	.MACRO __PUTD1SX
	MOVW R26,R28
	SUBI R26,LOW(-@0)
	SBCI R27,HIGH(-@0)
	ST   X+,R30
	ST   X+,R31
	ST   X+,R22
	ST   X,R23
	.ENDM

	.MACRO __CLRW1SX
	MOVW R26,R28
	SUBI R26,LOW(-@0)
	SBCI R27,HIGH(-@0)
	ST   X+,R30
	ST   X,R30
	.ENDM

	.MACRO __CLRD1SX
	MOVW R26,R28
	SUBI R26,LOW(-@0)
	SBCI R27,HIGH(-@0)
	ST   X+,R30
	ST   X+,R30
	ST   X+,R30
	ST   X,R30
	.ENDM

	.MACRO __PUTB2SX
	MOVW R30,R28
	SUBI R30,LOW(-@0)
	SBCI R31,HIGH(-@0)
	ST   Z,R26
	.ENDM

	.MACRO __PUTW2SX
	MOVW R30,R28
	SUBI R30,LOW(-@0)
	SBCI R31,HIGH(-@0)
	ST   Z+,R26
	ST   Z,R27
	.ENDM

	.MACRO __PUTD2SX
	MOVW R30,R28
	SUBI R30,LOW(-@0)
	SBCI R31,HIGH(-@0)
	ST   Z+,R26
	ST   Z+,R27
	ST   Z+,R24
	ST   Z,R25
	.ENDM

	.MACRO __PUTBSRX
	MOVW R30,R28
	SUBI R30,LOW(-@1)
	SBCI R31,HIGH(-@1)
	ST   Z,R@0
	.ENDM

	.MACRO __PUTWSRX
	MOVW R30,R28
	SUBI R30,LOW(-@2)
	SBCI R31,HIGH(-@2)
	ST   Z+,R@0
	ST   Z,R@1
	.ENDM

	.MACRO __PUTB1SNX
	MOVW R26,R28
	SUBI R26,LOW(-@0)
	SBCI R27,HIGH(-@0)
	LD   R0,X+
	LD   R27,X
	MOV  R26,R0
	SUBI R26,LOW(-@1)
	SBCI R27,HIGH(-@1)
	ST   X,R30
	.ENDM

	.MACRO __PUTW1SNX
	MOVW R26,R28
	SUBI R26,LOW(-@0)
	SBCI R27,HIGH(-@0)
	LD   R0,X+
	LD   R27,X
	MOV  R26,R0
	SUBI R26,LOW(-@1)
	SBCI R27,HIGH(-@1)
	ST   X+,R30
	ST   X,R31
	.ENDM

	.MACRO __PUTD1SNX
	MOVW R26,R28
	SUBI R26,LOW(-@0)
	SBCI R27,HIGH(-@0)
	LD   R0,X+
	LD   R27,X
	MOV  R26,R0
	SUBI R26,LOW(-@1)
	SBCI R27,HIGH(-@1)
	ST   X+,R30
	ST   X+,R31
	ST   X+,R22
	ST   X,R23
	.ENDM

	.MACRO __MULBRR
	MULS R@0,R@1
	MOVW R30,R0
	.ENDM

	.MACRO __MULBRRU
	MUL  R@0,R@1
	MOVW R30,R0
	.ENDM

	.MACRO __MULBRR0
	MULS R@0,R@1
	.ENDM

	.MACRO __MULBRRU0
	MUL  R@0,R@1
	.ENDM

	.MACRO __MULBNWRU
	LDI  R26,@2
	MUL  R26,R@0
	MOVW R30,R0
	MUL  R26,R@1
	ADD  R31,R0
	.ENDM

;NAME DEFINITIONS FOR GLOBAL VARIABLES ALLOCATED TO REGISTERS
	.DEF _matrix_selectX=R5
	.DEF _matrix_selectY=R4
	.DEF _maxtrix_printTextX=R7
	.DEF _maxtrix_printTextY=R6
	.DEF _flagFrameDataValid=R9
	.DEF _interCheck=R8

	.CSEG
	.ORG 0x00

;START OF CODE MARKER
__START_OF_CODE:

;INTERRUPT VECTORS
	RJMP __RESET
	RJMP 0x00
	RJMP 0x00
	RJMP 0x00
	RJMP 0x00
	RJMP 0x00
	RJMP 0x00
	RJMP 0x00
	RJMP 0x00
	RJMP _timer0_ovf_isr
	RJMP 0x00
	RJMP _usart_rx_isr
	RJMP 0x00
	RJMP 0x00
	RJMP 0x00
	RJMP 0x00
	RJMP 0x00
	RJMP 0x00
	RJMP 0x00

_codeFont:
	.DB  0x0,0x0,0x0,0x0,0x0,0x0,0x0,0x0
	.DB  0x0,0x0,0x0,0x0,0x0,0x0,0x0,0x0
	.DB  0x0,0x40,0x40,0x40,0x40,0x40,0x40,0x40
	.DB  0x0,0x40,0x0,0x0,0x0,0x0,0x0,0xA0
	.DB  0xA0,0xA0,0xA0,0x0,0x0,0x0,0x0,0x0
	.DB  0x0,0x0,0x0,0x0,0x0,0x0,0x14,0x14
	.DB  0x7E,0x28,0x28,0xFC,0x50,0x50,0x0,0x0
	.DB  0x0,0x0,0x20,0x70,0xA8,0xA0,0xA0,0x70
	.DB  0x28,0xA8,0xA8,0x70,0x20,0x0,0x0,0x0
	.DB  0x0,0x64,0x94,0x98,0x98,0x6E,0x19,0x19
	.DB  0x29,0x26,0x0,0x0,0x0,0x0,0x0,0x30
	.DB  0x48,0x48,0x30,0x60,0x94,0x88,0x88,0x74
	.DB  0x0,0x0,0x0,0x0,0x0,0x80,0x80,0x80
	.DB  0x80,0x0,0x0,0x0,0x0,0x0,0x0,0x0
	.DB  0x0,0x0,0x0,0x20,0x40,0x40,0x80,0x80
	.DB  0x80,0x80,0x80,0x40,0x40,0x20,0x2,0x0
	.DB  0x0,0x80,0x40,0x40,0x20,0x20,0x20,0x20
	.DB  0x20,0x40,0x40,0x80,0x0,0x0,0x0,0x20
	.DB  0xF8,0x70,0x50,0x0,0x0,0x0,0x0,0x0
	.DB  0x0,0x0,0x0,0x0,0x0,0x0,0x0,0x20
	.DB  0x20,0xF8,0x20,0x20,0x0,0x0,0x0,0x0
	.DB  0x0,0x0,0x0,0x0,0x0,0x0,0x0,0x0
	.DB  0x0,0x0,0x60,0x60,0x20,0x40,0x0,0x0
	.DB  0x0,0x0,0x0,0x0,0x0,0xF8,0x0,0x0
	.DB  0x0,0x0,0x0,0x0,0x0,0x0,0x0,0x0
	.DB  0x0,0x0,0x0,0x0,0x0,0x0,0x60,0x60
	.DB  0x0,0x0,0x0,0x0,0x0,0x10,0x10,0x10
	.DB  0x20,0x20,0x20,0x40,0x40,0x40,0x80,0x80
	.DB  0x0,0x0,0x0,0x70,0xD8,0x88,0x88,0x88
	.DB  0x88,0x88,0xD8,0x70,0x0,0x0,0x0,0x0
	.DB  0x0,0x10,0x30,0x50,0x10,0x10,0x10,0x10
	.DB  0x10,0x10,0x0,0x0,0x0,0x0,0x0,0x70
	.DB  0x88,0x88,0x8,0x10,0x20,0x40,0x80,0xF8
	.DB  0x0,0x0,0x0,0x0,0x0,0x70,0x88,0x88
	.DB  0x8,0x30,0x8,0x8,0x88,0x70,0x0,0x0
	.DB  0x0,0x0,0x0,0x10,0x30,0x30,0x50,0x50
	.DB  0x90,0xF8,0x10,0x10,0x0,0x0,0x0,0x0
	.DB  0x0,0xF8,0x80,0x80,0xF0,0x8,0x8,0x8
	.DB  0x88,0x70,0x0,0x0,0x0,0x0,0x0,0x70
	.DB  0x88,0x80,0x80,0xF0,0x88,0x88,0x88,0x70
	.DB  0x0,0x0,0x0,0x0,0x0,0xF8,0x8,0x10
	.DB  0x20,0x20,0x20,0x40,0x40,0x40,0x0,0x0
	.DB  0x0,0x0,0x0,0x70,0x88,0x88,0x88,0x70
	.DB  0x88,0x88,0x88,0x70,0x0,0x0,0x0,0x0
	.DB  0x0,0x70,0x88,0x88,0x88,0x78,0x8,0x8
	.DB  0x88,0x70,0x0,0x0,0x0,0x0,0x0,0x0
	.DB  0x0,0x0,0x60,0x60,0x0,0x0,0x60,0x60
	.DB  0x0,0x0,0x0,0x0,0x0,0x0,0x0,0x0
	.DB  0x60,0x60,0x0,0x0,0x60,0x60,0x20,0x40
	.DB  0x0,0x0,0x0,0x0,0x0,0x18,0x30,0x60
	.DB  0xC0,0x60,0x30,0x18,0x0,0x0,0x0,0x0
	.DB  0x0,0x0,0x0,0x0,0xF8,0x0,0x0,0xF8
	.DB  0x0,0x0,0x0,0x0,0x0,0x0,0x0,0x0
	.DB  0x0,0xC0,0x60,0x30,0x18,0x30,0x60,0xC0
	.DB  0x0,0x0,0x0,0x0,0x0,0x70,0x88,0x88
	.DB  0x8,0x10,0x20,0x20,0x0,0x20,0x0,0x0
	.DB  0x0,0x0,0x0,0x3C,0x42,0x81,0xB9,0x89
	.DB  0xB9,0xAA,0xBC,0x80,0x41,0x3E,0x0,0x0
	.DB  0x0,0x20,0x50,0x88,0x88,0x88,0xF8,0x88
	.DB  0x88,0x88,0x0,0x0,0x0,0x0,0x0,0xF0
	.DB  0x88,0x88,0x88,0xF0,0x88,0x88,0x88,0xF0
	.DB  0x0,0x0,0x0,0x0,0x0,0x70,0x88,0x80
	.DB  0x80,0x80,0x80,0x80,0x88,0x70,0x0,0x0
	.DB  0x0,0x0,0x0,0xF0,0x88,0x88,0x88,0x88
	.DB  0x88,0x88,0x88,0xF0,0x0,0x0,0x0,0x0
	.DB  0x0,0xF8,0x80,0x80,0x80,0xF8,0x80,0x80
	.DB  0x80,0xF8,0x0,0x0,0x0,0x0,0x0,0xF8
	.DB  0x80,0x80,0x80,0xF0,0x80,0x80,0x80,0x80
	.DB  0x0,0x0,0x0,0x0,0x0,0x70,0x88,0x80
	.DB  0x80,0x80,0x98,0x88,0x88,0x70,0x0,0x0
	.DB  0x0,0x0,0x0,0x88,0x88,0x88,0x88,0xF8
	.DB  0x88,0x88,0x88,0x88,0x0,0x0,0x0,0x0
	.DB  0x0,0xE0,0x40,0x40,0x40,0x40,0x40,0x40
	.DB  0x40,0xE0,0x0,0x0,0x0,0x0,0x0,0x10
	.DB  0x10,0x10,0x10,0x10,0x10,0x90,0x90,0x60
	.DB  0x0,0x0,0x0,0x0,0x0,0x88,0x90,0xA0
	.DB  0xC0,0xC0,0xA0,0x90,0x88,0x84,0x0,0x0
	.DB  0x0,0x0,0x0,0x80,0x80,0x80,0x80,0x80
	.DB  0x80,0x80,0x80,0xF8,0x0,0x0,0x0,0x0
	.DB  0x0,0x82,0xC6,0xAA,0x92,0x82,0x82,0x82
	.DB  0x82,0x82,0x0,0x0,0x0,0x0,0x0,0x84
	.DB  0xC4,0xA4,0x94,0x8C,0x84,0x84,0x84,0x84
	.DB  0x0,0x0,0x0,0x0,0x0,0x78,0x84,0x84
	.DB  0x84,0x84,0x84,0x84,0x84,0x78,0x0,0x0
	.DB  0x0,0x0,0x0,0x78,0x44,0x44,0x44,0x78
	.DB  0x40,0x40,0x40,0x40,0x0,0x0,0x0,0x0
	.DB  0x0,0x70,0x88,0x88,0x88,0x88,0x88,0xA8
	.DB  0x90,0x68,0x0,0x0,0x0,0x0,0x0,0x78
	.DB  0x44,0x44,0x44,0x78,0x60,0x50,0x48,0x44
	.DB  0x0,0x0,0x0,0x0,0x0,0x70,0x88,0x80
	.DB  0x80,0x70,0x8,0x8,0x88,0x70,0x0,0x0
	.DB  0x0,0x0,0x0,0xF8,0x20,0x20,0x20,0x20
	.DB  0x20,0x20,0x20,0x20,0x0,0x0,0x0,0x0
	.DB  0x0,0x88,0x88,0x88,0x88,0x88,0x88,0x88
	.DB  0x88,0x70,0x0,0x0,0x0,0x0,0x0,0x88
	.DB  0x88,0x88,0x50,0x50,0x50,0x50,0x20,0x20
	.DB  0x0,0x0,0x0,0x0,0x0,0x82,0x82,0x82
	.DB  0x82,0x54,0x54,0x54,0x54,0x28,0x0,0x0
	.DB  0x0,0x0,0x0,0x88,0x88,0x50,0x50,0x20
	.DB  0x50,0x50,0x88,0x88,0x0,0x0,0x0,0x0
	.DB  0x0,0x88,0x88,0x50,0x20,0x20,0x20,0x20
	.DB  0x20,0x20,0x0,0x0,0x0,0x0,0x0,0xF8
	.DB  0x8,0x8,0x10,0x20,0x40,0x80,0x80,0xF8
	.DB  0x0,0x0,0x0,0x0,0x0,0xE0,0x80,0x80
	.DB  0x80,0x80,0x80,0x80,0x80,0x80,0x80,0xE0
	.DB  0x0,0x0,0x0,0x80,0x80,0x40,0x40,0x40
	.DB  0x40,0x20,0x20,0x20,0x10,0x10,0x0,0x0
	.DB  0x0,0xE0,0x20,0x20,0x20,0x20,0x20,0x20
	.DB  0x20,0x20,0x20,0xE0,0x0,0x0,0x0,0x0
	.DB  0x20,0x50,0x88,0x0,0x0,0x0,0x0,0x0
	.DB  0x0,0x0,0x0,0x0,0x0,0x0,0x0,0x0
	.DB  0x0,0x0,0x0,0x0,0x0,0x0,0x0,0xFF
	.DB  0x0,0x0,0x0,0x40,0x60,0x30,0x10,0x0
	.DB  0x0,0x0,0x0,0x0,0x0,0x0,0x0,0x0
	.DB  0x0,0x0,0x0,0x0,0x70,0x90,0x10,0xF0
	.DB  0x90,0xF0,0x0,0x0,0x0,0x0,0x0,0x80
	.DB  0x80,0x80,0xE0,0x90,0x90,0x90,0x90,0xE0
	.DB  0x0,0x0,0x0,0x0,0x0,0x0,0x0,0x0
	.DB  0x70,0x88,0x80,0x80,0x88,0x70,0x0,0x0
	.DB  0x0,0x0,0x0,0x10,0x10,0x10,0x70,0x90
	.DB  0x90,0x90,0x90,0x70,0x0,0x0,0x0,0x0
	.DB  0x0,0x0,0x0,0x0,0x70,0x88,0xF8,0x80
	.DB  0x88,0x70,0x0,0x0,0x0,0x0,0x0,0x20
	.DB  0x40,0x40,0xE0,0x40,0x40,0x40,0x40,0x40
	.DB  0x0,0x0,0x0,0x0,0x0,0x0,0x0,0x0
	.DB  0x78,0x88,0x88,0x88,0x88,0x78,0x8,0xF0
	.DB  0x0,0x0,0x0,0x80,0x80,0x80,0xF0,0x90
	.DB  0x90,0x90,0x90,0x90,0x0,0x0,0x0,0x0
	.DB  0x0,0x80,0x0,0x0,0x80,0x80,0x80,0x80
	.DB  0x80,0x80,0x0,0x0,0x0,0x0,0x0,0x40
	.DB  0x0,0x0,0x40,0x40,0x40,0x40,0x40,0x40
	.DB  0x40,0xC0,0x0,0x0,0x0,0x80,0x80,0x80
	.DB  0x90,0xA0,0xC0,0xA0,0xA0,0x90,0x0,0x0
	.DB  0x0,0x0,0x0,0x80,0x80,0x80,0x80,0x80
	.DB  0x80,0x80,0x80,0x80,0x0,0x0,0x0,0x0
	.DB  0x0,0x0,0x0,0x0,0xFC,0x92,0x92,0x92
	.DB  0x92,0x92,0x0,0x0,0x0,0x0,0x0,0x0
	.DB  0x0,0x0,0xE0,0x90,0x90,0x90,0x90,0x90
	.DB  0x0,0x0,0x0,0x0,0x0,0x0,0x0,0x0
	.DB  0x70,0x88,0x88,0x88,0x88,0x70,0x0,0x0
	.DB  0x0,0x0,0x0,0x0,0x0,0x0,0xE0,0x90
	.DB  0x90,0x90,0x90,0xE0,0x80,0x80,0x0,0x0
	.DB  0x0,0x0,0x0,0x0,0x70,0x90,0x90,0x90
	.DB  0x90,0x70,0x10,0x10,0x0,0x0,0x0,0x0
	.DB  0x0,0x0,0xA0,0xC0,0x80,0x80,0x80,0x80
	.DB  0x0,0x0,0x0,0x0,0x0,0x0,0x0,0x0
	.DB  0x60,0x90,0x80,0x60,0x10,0xE0,0x0,0x0
	.DB  0x0,0x0,0x0,0x0,0x40,0x40,0xE0,0x40
	.DB  0x40,0x40,0x40,0x20,0x0,0x0,0x0,0x0
	.DB  0x0,0x0,0x0,0x0,0x90,0x90,0x90,0x90
	.DB  0x90,0xF0,0x0,0x0,0x0,0x0,0x0,0x0
	.DB  0x0,0x0,0x88,0x88,0x50,0x50,0x20,0x20
	.DB  0x0,0x0,0x0,0x0,0x0,0x0,0x0,0x0
	.DB  0x82,0x82,0x54,0x54,0x54,0x28,0x0,0x0
	.DB  0x0,0x0,0x0,0x0,0x0,0x0,0x88,0x50
	.DB  0x20,0x20,0x50,0x88,0x0,0x0,0x0,0x0
	.DB  0x0,0x0,0x0,0x0,0x88,0x50,0x50,0x50
	.DB  0x60,0x20,0x20,0x40,0x0,0x0,0x0,0x0
	.DB  0x0,0x0,0xF8,0x8,0x10,0x20,0x40,0xF8
	.DB  0x0,0x0,0x0,0x0,0x0,0x30,0x20,0x20
	.DB  0x40,0x40,0x80,0x40,0x40,0x20,0x20,0x30
	.DB  0x0,0x0,0x0,0x40,0x40,0x40,0x40,0x40
	.DB  0x40,0x40,0x40,0x40,0x40,0x40,0x0,0x0
	.DB  0x0,0xC0,0x40,0x40,0x20,0x20,0x10,0x20
	.DB  0x20,0x40,0x40,0xC0,0x0,0x0,0x0,0x0
	.DB  0x0,0x0,0x0,0x64,0x98,0x0,0x0,0x0
	.DB  0x0,0x0,0x0,0x0,0x0,0x0,0x0,0x0
	.DB  0x0,0x0,0x0,0x0,0x0,0x0,0x0,0x0
	.DB  0x0,0x0,0x0,0x0,0x0,0x0,0x0,0x0
	.DB  0x0,0x0,0x0,0x0,0x0,0x0,0x0,0x0
	.DB  0x0,0x0,0x0,0x0,0x0,0x0,0x0,0x0
	.DB  0x0,0x0,0x0,0x0,0x0,0x0,0x0,0x0
	.DB  0x0,0x0,0x0,0x0,0x0,0x0,0x0,0x0
	.DB  0x0,0x0,0x0,0x0,0x0,0x0,0x0,0x0
	.DB  0x0,0x0,0x0,0x0,0x0,0x0,0x0,0x0
	.DB  0x0,0x0,0x0,0x0,0x0,0x0,0x0,0x0
	.DB  0x0,0x0,0x0,0x0,0x0,0x0,0x0,0x0
	.DB  0x0,0x0,0x0,0x0,0x0,0x0,0x0,0x0
	.DB  0x0,0x0,0x0,0x0,0x0,0x0,0x0,0x0
	.DB  0x0,0x0,0x0,0x0,0x0,0x0,0x0,0x0
	.DB  0x0,0x0,0x0,0x0,0x0,0x0,0x0,0x0
	.DB  0x0,0x0,0x0,0x0,0x0,0x0,0x0,0x0
	.DB  0x0,0x0,0x0,0x0,0x0,0x0,0x0,0x0
	.DB  0x0,0x0,0x0,0x0,0x0,0x0,0x0,0x0
	.DB  0x0,0x0,0x0,0x0,0x0,0x0,0x0,0x0
	.DB  0x0,0x0,0x0,0x0,0x0,0x0,0x0,0x0
	.DB  0x0,0x0,0x0,0x0,0x0,0x0,0x0,0x0
	.DB  0x0,0x0,0x0,0x0,0x0,0x0,0x0,0x0
	.DB  0x0,0x0,0x0,0x0,0x0,0x0,0x0,0x0
	.DB  0x0,0x0,0x0,0x0,0x0,0x0,0x0,0x0
	.DB  0x0,0x0,0x0,0x0,0x0,0x0,0x0,0x0
	.DB  0x0,0x0,0x0,0x0,0x0,0x0,0x0,0x0
	.DB  0x0,0x0,0x0,0x0,0x0,0x0,0x0,0x0
	.DB  0x0,0x0,0x0,0x0,0x0,0x0,0x0,0x0
	.DB  0x0,0x0,0x0,0x0,0x0,0x0,0x0,0x0
	.DB  0x0,0x0,0x0,0x0,0x0,0x0,0x0,0x0
	.DB  0x0,0x0,0x0,0x0,0x0,0x0,0x0,0x0
	.DB  0x0,0x0,0x0,0x0,0x0,0x0,0x0,0x0
	.DB  0x0,0x0,0x0,0x0,0x0,0x0,0x0,0x0
	.DB  0x0,0x0,0x0,0x0,0x0,0x0,0x0,0x0
	.DB  0x0,0x0,0x0,0x0,0x0,0x0,0x0,0x0
	.DB  0x0,0x0,0x0,0x0,0x0,0x0,0x0,0x0
	.DB  0x0,0x0,0x0,0x0,0x0,0x0,0x0,0x0
	.DB  0x0,0x0,0x0,0x0,0x0,0x0,0x0,0x0
	.DB  0x0,0x0,0x0,0x0,0x0,0x0,0x0,0x0
	.DB  0x0,0x0,0x0,0x0,0x0,0x0,0x0,0x0
	.DB  0x0,0x0,0x0,0x0,0x0,0x0,0x0,0x0
	.DB  0x0,0x0,0x0,0x0,0x0,0x0,0x0,0x0
	.DB  0x0,0x0,0x0,0x0,0x0,0x0,0x0,0x0
	.DB  0x0,0x0,0x0,0x0,0x0,0x0,0x0,0x0
	.DB  0x0,0x0,0x0,0x0,0x0,0x0,0x0,0x0
	.DB  0x0,0x0,0x0,0x0,0x0,0x0,0x0,0x0
	.DB  0x0,0x0,0x0,0x0,0x0,0x0,0x0,0x0
	.DB  0x0,0x0,0x0,0x0,0x0,0x0,0x0,0x0
	.DB  0x0,0x0,0x0,0x0,0x0,0x0,0x0,0x0
	.DB  0x0,0x0,0x0,0x0,0x0,0x0,0x0,0x0
	.DB  0x0,0x0,0x0,0x0,0x0,0x0,0x0,0x0
	.DB  0x0,0x0,0x0,0x0,0x0,0x0,0x0,0x0
	.DB  0x0,0x0,0x0,0x0,0x0,0x0,0x0,0x0
	.DB  0x0,0x0,0x0,0x0,0x0,0x0,0x0,0x0
	.DB  0x0,0x0,0x0,0x0,0x0,0x0,0x0,0x0
	.DB  0x0,0x0,0x0,0x0,0x0,0x0,0x0,0x0
	.DB  0x0,0x0,0x0,0x0,0x0,0x0,0x0,0x0
	.DB  0x0,0x0,0x0,0x0,0x0,0x0,0x0,0x0
	.DB  0x0,0x0,0x0,0x0,0x0,0x0,0x0,0x0
	.DB  0x0,0x0,0x0,0x0,0x0,0x0,0x88,0x70
	.DB  0x0,0x20,0x50,0x88,0x88,0x88,0xF8,0x88
	.DB  0x88,0x88,0x0,0x0,0x70,0x88,0x0,0x20
	.DB  0x50,0x88,0x88,0x88,0xF8,0x88,0x88,0x88
	.DB  0x0,0x0,0x38,0x44,0x0,0x7C,0x40,0x40
	.DB  0x40,0x7C,0x40,0x40,0x40,0x7C,0x0,0x0
	.DB  0x70,0x88,0x0,0x70,0x88,0x88,0x88,0x88
	.DB  0x88,0x88,0x88,0x70,0x0,0x0,0x0,0xC
	.DB  0x4,0x74,0x88,0x88,0x88,0x88,0x88,0x88
	.DB  0x88,0x70,0x0,0x0,0x0,0x6,0x2,0x44
	.DB  0x44,0x44,0x44,0x44,0x44,0x44,0x44,0x38
	.DB  0x0,0x0,0x0,0x0,0x0,0x78,0x44,0x44
	.DB  0x44,0xF4,0x44,0x44,0x44,0x78,0x0,0x0
	.DB  0x88,0x70,0x0,0x20,0x50,0x88,0x88,0x88
	.DB  0xF8,0x88,0x88,0x88,0x0,0x0,0x70,0x88
	.DB  0x0,0x20,0x50,0x88,0x88,0x88,0xF8,0x88
	.DB  0x88,0x88,0x0,0x0,0x70,0x88,0x0,0xF8
	.DB  0x80,0x80,0x80,0xF8,0x80,0x80,0x80,0xF8
	.DB  0x0,0x0,0x78,0x84,0x0,0x78,0x84,0x84
	.DB  0x84,0x84,0x84,0x84,0x84,0x78,0x0,0x0
	.DB  0x0,0x0,0x6,0x7A,0x86,0x84,0x84,0x84
	.DB  0x84,0x84,0x84,0x78,0x0,0x0,0x0,0x0
	.DB  0x4,0x8C,0x88,0x88,0x88,0x88,0x88,0x88
	.DB  0x88,0x70,0x0,0x0,0x0,0x0,0x0,0x78
	.DB  0x44,0x44,0x44,0xE4,0x44,0x44,0x44,0x78
	.DB  0x0,0x0,0x0,0xFE,0x0,0x0,0x0,0x0
	.DB  0x0,0x0,0x0,0x0,0x0,0x0,0x0,0x0
	.DB  0x0,0x0,0x0,0x38,0x44,0x44,0x38,0x0
	.DB  0x0,0x0,0x0,0x0,0x0,0x0,0x0,0x0
	.DB  0x0,0x0,0x0,0x20,0x20,0xF8,0x20,0x20
	.DB  0x0,0xF8,0x0,0x0,0x0,0x0,0x0,0xE0
	.DB  0x20,0xE0,0x80,0xE0,0x0,0x0,0x0,0x0
	.DB  0x0,0x0,0x0,0x0,0x0,0xE0,0x20,0xE0
	.DB  0x20,0xE0,0x0,0x0,0x0,0x0,0x0,0x0
	.DB  0x0,0x0,0x0,0x20,0x60,0xC0,0x80,0x0
	.DB  0x0,0x0,0x0,0x0,0x0,0x0,0x20,0x10
	.DB  0x0,0x20,0x50,0x88,0x88,0x88,0xF8,0x88
	.DB  0x88,0x88,0x0,0x0,0x30,0x10,0x20,0x20
	.DB  0x50,0x88,0x88,0x88,0xF8,0x88,0x88,0x88
	.DB  0x0,0x0,0x0,0xF8,0x0,0x20,0x50,0x88
	.DB  0x88,0x88,0xF8,0x88,0x88,0x88,0x0,0x0
	.DB  0x10,0x20,0x0,0x20,0x50,0x88,0x88,0x88
	.DB  0xF8,0x88,0x88,0x88,0x0,0x0,0x0,0x0
	.DB  0x0,0x20,0x50,0x88,0x88,0x88,0xF8,0x88
	.DB  0x88,0x88,0x20,0x0,0x0,0x0,0x0,0x60
	.DB  0x90,0x90,0x90,0x60,0x0,0x0,0x0,0x0
	.DB  0x0,0x0,0x40,0x20,0x88,0x70,0x50,0x88
	.DB  0x88,0x88,0xF8,0x88,0x88,0x88,0x0,0x0
	.DB  0x30,0x10,0xA8,0x70,0x50,0x88,0x88,0x88
	.DB  0xF8,0x88,0x88,0x88,0x0,0x0,0x24,0x58
	.DB  0x88,0x70,0x50,0x88,0x88,0x88,0xF8,0x88
	.DB  0x88,0x88,0x0,0x0,0x10,0x20,0x88,0x70
	.DB  0x50,0x88,0x88,0x88,0xF8,0x88,0x88,0x88
	.DB  0x0,0x0,0x0,0x0,0x0,0x0,0x0,0x0
	.DB  0x10,0x0,0x10,0x10,0x20,0x44,0x44,0x38
	.DB  0x40,0x20,0x0,0x20,0x50,0x88,0x88,0x88
	.DB  0xF8,0x88,0x88,0x88,0x0,0x0,0x10,0x20
	.DB  0x0,0x20,0x50,0x88,0x88,0x88,0xF8,0x88
	.DB  0x88,0x88,0x0,0x0,0x70,0x88,0x0,0x20
	.DB  0x50,0x88,0x88,0x88,0xF8,0x88,0x88,0x88
	.DB  0x0,0x0,0x48,0xB0,0x0,0x20,0x50,0x88
	.DB  0x88,0x88,0xF8,0x88,0x88,0x88,0x0,0x0
	.DB  0x0,0x0,0x0,0x20,0x50,0x88,0x88,0x88
	.DB  0xF8,0x88,0x88,0x88,0x20,0x0,0x30,0x10
	.DB  0x20,0x20,0x50,0x88,0x88,0x88,0xF8,0x88
	.DB  0x88,0x88,0x0,0x0,0x88,0x70,0x0,0x20
	.DB  0x50,0x88,0x88,0x88,0xF8,0x88,0x88,0x88
	.DB  0x0,0x20,0x20,0x10,0x70,0x88,0x20,0x50
	.DB  0x88,0x88,0xF8,0x88,0x88,0x88,0x0,0x0
	.DB  0x18,0x8,0x70,0x88,0x20,0x50,0x88,0x88
	.DB  0xF8,0x88,0x88,0x88,0x0,0x0,0x28,0x50
	.DB  0x0,0x70,0xA8,0x50,0x88,0x88,0xF8,0x88
	.DB  0x88,0x88,0x0,0x0,0x8,0x10,0x70,0x88
	.DB  0x20,0x50,0x88,0x88,0xF8,0x88,0x88,0x88
	.DB  0x0,0x0,0x0,0x70,0x88,0x20,0x50,0x88
	.DB  0x88,0x88,0xF8,0x88,0x88,0x88,0x0,0x20
	.DB  0x20,0x10,0x0,0xF8,0x80,0x80,0x80,0xF8
	.DB  0x80,0x80,0x80,0xF8,0x0,0x0,0x20,0x40
	.DB  0x0,0xE0,0x40,0x40,0x40,0x40,0x40,0x40
	.DB  0x40,0xE0,0x0,0x0,0x30,0x10,0x20,0xF8
	.DB  0x80,0x80,0x80,0xF8,0x80,0x80,0x80,0xF8
	.DB  0x0,0x0,0x48,0xB0,0x0,0xF8,0x80,0x80
	.DB  0x80,0xF8,0x80,0x80,0x80,0xF8,0x0,0x0
	.DB  0x10,0x20,0x0,0xF8,0x80,0x80,0x80,0xF8
	.DB  0x80,0x80,0x80,0xF8,0x0,0x0,0x0,0x0
	.DB  0x0,0xF8,0x80,0x80,0x80,0xF8,0x80,0x80
	.DB  0x80,0xF8,0x0,0x20,0x10,0x68,0x90,0x0
	.DB  0xF8,0x80,0x80,0x80,0xF8,0x80,0x80,0xF8
	.DB  0x0,0x0,0x18,0x68,0x90,0x0,0xF8,0x80
	.DB  0x80,0x80,0xF8,0x80,0x80,0xF8,0x0,0x0
	.DB  0x28,0x50,0x60,0x90,0xF8,0x80,0x80,0x80
	.DB  0xF8,0x80,0x80,0xF8,0x0,0x0,0x4,0x68
	.DB  0x90,0x0,0xF8,0x80,0x80,0x80,0xF8,0x80
	.DB  0x80,0xF8,0x0,0x0,0x70,0x88,0x0,0xF8
	.DB  0x80,0x80,0x80,0xF8,0x80,0x80,0x80,0xF8
	.DB  0x0,0x20,0x80,0x40,0x0,0xE0,0x40,0x40
	.DB  0x40,0x40,0x40,0x40,0x40,0xE0,0x0,0x0
	.DB  0x60,0x20,0x40,0xE0,0x40,0x40,0x40,0x40
	.DB  0x40,0x40,0x40,0xE0,0x0,0x0,0x20,0x10
	.DB  0x0,0x84,0x84,0x84,0x84,0x84,0x84,0x84
	.DB  0x84,0x78,0x0,0x0,0x10,0x20,0x0,0x84
	.DB  0x84,0x84,0x84,0x84,0x84,0x84,0x84,0x78
	.DB  0x0,0x0,0x30,0x48,0x0,0x84,0x84,0x84
	.DB  0x84,0x84,0x84,0x84,0x84,0x78,0x0,0x0
	.DB  0x50,0xA0,0x0,0xE0,0x40,0x40,0x40,0x40
	.DB  0x40,0x40,0x40,0xE0,0x0,0x0,0x20,0x40
	.DB  0x0,0xE0,0x40,0x40,0x40,0x40,0x40,0x40
	.DB  0x40,0xE0,0x0,0x0,0x0,0x0,0x0,0xE0
	.DB  0x40,0x40,0x40,0x40,0x40,0x40,0x40,0xE0
	.DB  0x0,0x40,0x40,0x20,0x0,0x70,0x88,0x88
	.DB  0x88,0x88,0x88,0x88,0x88,0x70,0x0,0x0
	.DB  0x0,0x0,0x0,0x0,0x0,0x0,0x0,0x0
	.DB  0x0,0x0,0x0,0x0,0x0,0x0,0x30,0x10
	.DB  0x20,0x70,0x88,0x88,0x88,0x88,0x88,0x88
	.DB  0x88,0x70,0x0,0x0,0x48,0xB0,0x0,0x70
	.DB  0x88,0x88,0x88,0x88,0x88,0x88,0x88,0x70
	.DB  0x0,0x0,0x10,0x20,0x0,0x70,0x88,0x88
	.DB  0x88,0x88,0x88,0x88,0x88,0x70,0x0,0x0
	.DB  0x0,0x0,0x0,0x70,0x88,0x88,0x88,0x88
	.DB  0x88,0x88,0x88,0x70,0x0,0x20,0x20,0x10
	.DB  0x70,0x88,0x70,0x88,0x88,0x88,0x88,0x88
	.DB  0x88,0x70,0x0,0x0,0x18,0x8,0x70,0x88
	.DB  0x70,0x88,0x88,0x88,0x88,0x88,0x88,0x70
	.DB  0x0,0x0,0x14,0x28,0x70,0x88,0x70,0x88
	.DB  0x88,0x88,0x88,0x88,0x88,0x70,0x0,0x0
	.DB  0x8,0x10,0x70,0x88,0x70,0x88,0x88,0x88
	.DB  0x88,0x88,0x88,0x70,0x0,0x0,0x70,0x88
	.DB  0x0,0x70,0x88,0x88,0x88,0x88,0x88,0x88
	.DB  0x88,0x70,0x0,0x20,0x40,0x20,0xC,0x74
	.DB  0x8C,0x88,0x88,0x88,0x88,0x88,0x88,0x70
	.DB  0x0,0x0,0x60,0x20,0x4C,0x74,0x8C,0x88
	.DB  0x88,0x88,0x88,0x88,0x88,0x70,0x0,0x0
	.DB  0x50,0xA0,0xC,0x74,0x8C,0x88,0x88,0x88
	.DB  0x88,0x88,0x88,0x70,0x0,0x0,0x20,0x40
	.DB  0xC,0x74,0x8C,0x88,0x88,0x88,0x88,0x88
	.DB  0x88,0x70,0x0,0x0,0x0,0x0,0xC,0x74
	.DB  0x8C,0x88,0x88,0x88,0x88,0x88,0x88,0x70
	.DB  0x0,0x20,0x40,0x20,0x0,0x88,0x88,0x88
	.DB  0x88,0x88,0x88,0x88,0x88,0x70,0x0,0x0
	.DB  0x0,0x0,0x50,0x20,0x50,0x8,0x78,0x88
	.DB  0x88,0x88,0x88,0x70,0x0,0x0,0x30,0x10
	.DB  0x20,0x88,0x88,0x88,0x88,0x88,0x88,0x88
	.DB  0x88,0x70,0x0,0x0,0x48,0xB0,0x0,0x88
	.DB  0x88,0x88,0x88,0x88,0x88,0x88,0x88,0x70
	.DB  0x0,0x0,0x10,0x20,0x0,0x88,0x88,0x88
	.DB  0x88,0x88,0x88,0x88,0x88,0x70,0x0,0x0
	.DB  0x0,0x0,0x0,0x98,0x88,0x88,0x88,0x88
	.DB  0x88,0x88,0x88,0x70,0x0,0x20,0x40,0x20
	.DB  0x4,0x8C,0x88,0x88,0x88,0x88,0x88,0x88
	.DB  0x88,0x70,0x0,0x0,0x30,0x10,0x24,0x8C
	.DB  0x88,0x88,0x88,0x88,0x88,0x88,0x88,0x70
	.DB  0x0,0x0,0x48,0xB0,0x4,0x8C,0x88,0x88
	.DB  0x88,0x88,0x88,0x88,0x88,0x70,0x0,0x0
	.DB  0x10,0x20,0x4,0x8C,0x88,0x88,0x88,0x88
	.DB  0x88,0x88,0x88,0x70,0x0,0x0,0x0,0x0
	.DB  0x4,0x8C,0x88,0x88,0x88,0x88,0x88,0x88
	.DB  0x88,0x70,0x0,0x20,0x40,0x20,0x0,0x88
	.DB  0x88,0x88,0x50,0x20,0x20,0x20,0x20,0x20
	.DB  0x0,0x0,0x30,0x10,0x20,0x88,0x88,0x88
	.DB  0x50,0x20,0x20,0x20,0x20,0x20,0x0,0x0
	.DB  0x48,0xB0,0x0,0x88,0x88,0x88,0x50,0x20
	.DB  0x20,0x20,0x20,0x20,0x0,0x0,0x10,0x20
	.DB  0x0,0x88,0x88,0x88,0x50,0x20,0x20,0x20
	.DB  0x20,0x20,0x0,0x0,0x0,0x0,0x0,0x88
	.DB  0x88,0x88,0x50,0x20,0x20,0x20,0x20,0x20
	.DB  0x0,0x20
_codeFontIncX:
	.DB  0x6,0x2,0x3,0x7,0x5,0x8,0x6,0x1
	.DB  0x3,0x7,0x5,0x5,0x3,0x5,0x3,0x4
	.DB  0x5,0x4,0x5,0x5,0x5,0x5,0x5,0x5
	.DB  0x5,0x5,0x3,0x3,0x5,0x5,0x5,0x5
	.DB  0x8,0x5,0x5,0x5,0x5,0x5,0x5,0x5
	.DB  0x5,0x3,0x4,0x6,0x5,0x7,0x6,0x6
	.DB  0x6,0x5,0x6,0x5,0x5,0x5,0x5,0x7
	.DB  0x5,0x5,0x5,0x3,0x4,0x3,0x5,0x8
	.DB  0x4,0x4,0x4,0x5,0x4,0x5,0x3,0x5
	.DB  0x4,0x1,0x2,0x4,0x1,0x7,0x4,0x5
	.DB  0x4,0x4,0x3,0x4,0x3,0x4,0x5,0x7
	.DB  0x5,0x5,0x5,0x4,0x2,0x4,0x6,0x1
	.DB  0x1,0x1,0x1,0x1,0x1,0x1,0x1,0x1
	.DB  0x1,0x1,0x1,0x1,0x1,0x1,0x1,0x1
	.DB  0x1,0x1,0x1,0x1,0x1,0x1,0x1,0x1
	.DB  0x1,0x1,0x1,0x1,0x1,0x1,0x1,0x1
	.DB  0x1,0x5,0x5,0x6,0x5,0x6,0x7,0x6
	.DB  0x5,0x5,0x5,0x6,0x7,0x6,0x6,0x7
	.DB  0x6,0x5,0x3,0x3,0x3,0x5,0x5,0x5
	.DB  0x5,0x5,0x4,0x5,0x5,0x6,0x5,0x6
	.DB  0x5,0x5,0x5,0x5,0x5,0x5,0x5,0x5
	.DB  0x5,0x5,0x5,0x5,0x5,0x3,0x5,0x5
	.DB  0x5,0x5,0x5,0x5,0x5,0x6,0x5,0x3
	.DB  0x3,0x6,0x6,0x6,0x4,0x3,0x3,0x5
	.DB  0x1,0x5,0x5,0x5,0x5,0x5,0x5,0x6
	.DB  0x5,0x5,0x6,0x6,0x6,0x6,0x6,0x5
	.DB  0x5,0x5,0x5,0x5,0x5,0x6,0x6,0x6
	.DB  0x6,0x6,0x5,0x5,0x5,0x5,0x5
_tbl10_G100:
	.DB  0x10,0x27,0xE8,0x3,0x64,0x0,0xA,0x0
	.DB  0x1,0x0
_tbl16_G100:
	.DB  0x0,0x10,0x0,0x1,0x10,0x0,0x1,0x0

;GLOBAL REGISTER VARIABLES INITIALIZATION
__REG_VARS:
	.DB  0x0,0x0

_0x0:
	.DB  0x30,0x0

__GLOBAL_INI_TBL:
	.DW  0x02
	.DW  0x08
	.DW  __REG_VARS*2

	.DW  0x02
	.DW  _0x5E
	.DW  _0x0*2

	.DW  0x02
	.DW  _0x5E+2
	.DW  _0x0*2

_0xFFFFFFFF:
	.DW  0

#define __GLOBAL_INI_TBL_PRESENT 1

__RESET:
	CLI
	CLR  R30
	OUT  EECR,R30

;INTERRUPT VECTORS ARE PLACED
;AT THE START OF FLASH
	LDI  R31,1
	OUT  GICR,R31
	OUT  GICR,R30
	OUT  MCUCR,R30

;CLEAR R2-R14
	LDI  R24,(14-2)+1
	LDI  R26,2
	CLR  R27
__CLEAR_REG:
	ST   X+,R30
	DEC  R24
	BRNE __CLEAR_REG

;CLEAR SRAM
	LDI  R24,LOW(__CLEAR_SRAM_SIZE)
	LDI  R25,HIGH(__CLEAR_SRAM_SIZE)
	LDI  R26,__SRAM_START
__CLEAR_SRAM:
	ST   X+,R30
	SBIW R24,1
	BRNE __CLEAR_SRAM

;GLOBAL VARIABLES INITIALIZATION
	LDI  R30,LOW(__GLOBAL_INI_TBL*2)
	LDI  R31,HIGH(__GLOBAL_INI_TBL*2)
__GLOBAL_INI_NEXT:
	LPM  R24,Z+
	LPM  R25,Z+
	SBIW R24,0
	BREQ __GLOBAL_INI_END
	LPM  R26,Z+
	LPM  R27,Z+
	LPM  R0,Z+
	LPM  R1,Z+
	MOVW R22,R30
	MOVW R30,R0
__GLOBAL_INI_LOOP:
	LPM  R0,Z+
	ST   X+,R0
	SBIW R24,1
	BRNE __GLOBAL_INI_LOOP
	MOVW R30,R22
	RJMP __GLOBAL_INI_NEXT
__GLOBAL_INI_END:

;HARDWARE STACK POINTER INITIALIZATION
	LDI  R30,LOW(__SRAM_END-__HEAP_SIZE)
	OUT  SPL,R30
	LDI  R30,HIGH(__SRAM_END-__HEAP_SIZE)
	OUT  SPH,R30

;DATA STACK POINTER INITIALIZATION
	LDI  R28,LOW(__SRAM_START+__DSTACK_SIZE)
	LDI  R29,HIGH(__SRAM_START+__DSTACK_SIZE)

	RJMP _main

	.ESEG
	.ORG 0

	.DSEG
	.ORG 0x160

	.CSEG
;#include <mega8.h>
	#ifndef __SLEEP_DEFINED__
	#define __SLEEP_DEFINED__
	.EQU __se_bit=0x80
	.EQU __sm_mask=0x70
	.EQU __sm_powerdown=0x20
	.EQU __sm_powersave=0x30
	.EQU __sm_standby=0x60
	.EQU __sm_ext_standby=0x70
	.EQU __sm_adc_noise_red=0x10
	.SET power_ctrl_reg=mcucr
	#endif
;
;// Declare your global variables here
;#include <delay.h>
;#include <ledfont_size9_1byte.h>
;#include <atmega8_ledp10_dispfnc.h>

	.CSEG
_IC138QuetHang:
; .FSTART _IC138QuetHang
	ST   -Y,R26
;	soHang -> Y+0
	LD   R30,Y
	LDI  R31,0
	CPI  R30,LOW(0x1)
	LDI  R26,HIGH(0x1)
	CPC  R31,R26
	BRNE _0x6
	CBI  0x18,0
	CBI  0x18,1
	RJMP _0x63
_0x6:
	CPI  R30,LOW(0x2)
	LDI  R26,HIGH(0x2)
	CPC  R31,R26
	BRNE _0xD
	SBI  0x18,0
	CBI  0x18,1
	RJMP _0x63
_0xD:
	CPI  R30,LOW(0x3)
	LDI  R26,HIGH(0x3)
	CPC  R31,R26
	BRNE _0x14
	CBI  0x18,0
	RJMP _0x64
_0x14:
	CPI  R30,LOW(0x4)
	LDI  R26,HIGH(0x4)
	CPC  R31,R26
	BRNE _0x5
	SBI  0x18,0
_0x64:
	SBI  0x18,1
_0x63:
	SBI  0x15,4
_0x5:
	ADIW R28,1
	RET
; .FEND
_IC74HC595GuiDuLieu:
; .FSTART _IC74HC595GuiDuLieu
	ST   -Y,R26
	ST   -Y,R17
;	text -> Y+1
;	i -> R17
	LDI  R17,LOW(0)
_0x23:
	CPI  R17,8
	BRSH _0x24
	MOV  R30,R17
	LDI  R26,LOW(128)
	RCALL __LSRB12
	LDD  R26,Y+1
	AND  R30,R26
	BRNE _0x25
	CBI  0x18,3
	RJMP _0x26
_0x25:
	SBI  0x18,3
_0x26:
	SBI  0x18,5
	CBI  0x18,5
	SUBI R17,-1
	RJMP _0x23
_0x24:
	LDD  R17,Y+0
	RJMP _0x2060001
; .FEND
_TimerHandlerShowLed:
; .FSTART _TimerHandlerShowLed
	SBIW R28,2
	RCALL __SAVELOCR6
;	dong -> R16,R17
;	cot -> R18,R19
;	hangQuet -> R20,R21
;	luot -> Y+6
	__GETWRN 20,21,1
_0x2C:
	__CPWRN 20,21,5
	BRGE _0x2D
	LDI  R30,LOW(0)
	STD  Y+6,R30
	STD  Y+6+1,R30
_0x2F:
	LDD  R26,Y+6
	LDD  R27,Y+6+1
	SBIW R26,17
	BRGE _0x30
	__GETWRN 18,19,0
_0x32:
	__CPWRN 18,19,8
	BRGE _0x33
	LDD  R30,Y+6
	LDD  R31,Y+6+1
	ADIW R30,16
	MOVW R16,R30
_0x35:
	LDD  R30,Y+6
	LDD  R31,Y+6+1
	ADIW R30,0
	CP   R30,R16
	CPC  R31,R17
	BRGE _0x36
	MOVW R30,R16
	SUB  R30,R20
	SBC  R31,R21
	RCALL SUBOPT_0x0
	ADD  R30,R18
	ADC  R31,R19
	LD   R30,Z
	COM  R30
	MOV  R26,R30
	RCALL _IC74HC595GuiDuLieu
	__SUBWRN 16,17,4
	RJMP _0x35
_0x36:
	__ADDWRN 18,19,1
	RJMP _0x32
_0x33:
	LDD  R30,Y+6
	LDD  R31,Y+6+1
	ADIW R30,16
	STD  Y+6,R30
	STD  Y+6+1,R31
	RJMP _0x2F
_0x30:
	CBI  0x18,2
	SBI  0x18,2
	LDI  R30,LOW(5)
	SUB  R30,R20
	MOV  R26,R30
	RCALL _IC138QuetHang
	__DELAY_USW 8000
	CBI  0x15,4
	__ADDWRN 20,21,1
	RJMP _0x2C
_0x2D:
	RCALL __LOADLOCR6
	ADIW R28,8
	RET
; .FEND
_Matrix_SelectPos:
; .FSTART _Matrix_SelectPos
	ST   -Y,R26
;	x -> Y+1
;	y -> Y+0
	LDD  R5,Y+1
	LDD  R4,Y+0
	RJMP _0x2060001
; .FEND
_MatrixSetup:
; .FSTART _MatrixSetup
	ST   -Y,R26
;	matrix_setupX -> Y+3
;	matrix_setupY -> Y+1
;	color -> Y+0
	LDD  R26,Y+3
	LDD  R27,Y+3+1
	CPI  R26,LOW(0x40)
	LDI  R30,HIGH(0x40)
	CPC  R27,R30
	BRGE _0x3E
	LDD  R26,Y+1
	LDD  R27,Y+1+1
	SBIW R26,32
	BRGE _0x3E
	LDD  R26,Y+4
	TST  R26
	BRMI _0x3E
	LDD  R26,Y+2
	TST  R26
	BRPL _0x3D
_0x3E:
	RJMP _0x2060002
_0x3D:
	LD   R30,Y
	CPI  R30,0
	BREQ _0x40
	LDD  R30,Y+1
	LDD  R31,Y+1+1
	RCALL SUBOPT_0x0
	RCALL SUBOPT_0x1
	OR   R30,R1
	RJMP _0x65
_0x40:
	LDD  R30,Y+1
	LDD  R31,Y+1+1
	RCALL SUBOPT_0x0
	RCALL SUBOPT_0x1
	COM  R30
	AND  R30,R1
_0x65:
	MOVW R26,R22
	ST   X,R30
_0x2060002:
	ADIW R28,5
	RET
; .FEND
_Matrix_ClearFromTo:
; .FSTART _Matrix_ClearFromTo
	ST   -Y,R26
;	fromX -> Y+3
;	fromY -> Y+2
;	toX -> Y+1
;	toY -> Y+0
	LDD  R6,Y+2
_0x43:
	LD   R30,Y
	CP   R30,R6
	BRLO _0x44
	LDD  R7,Y+3
_0x46:
	LDD  R30,Y+1
	CP   R30,R7
	BRLO _0x47
	RCALL SUBOPT_0x2
	LDI  R26,LOW(0)
	RCALL _MatrixSetup
	INC  R7
	RJMP _0x46
_0x47:
	INC  R6
	RJMP _0x43
_0x44:
	ADIW R28,4
	RET
; .FEND
_Matrix_PrintText:
; .FSTART _Matrix_PrintText
	ST   -Y,R26
	ST   -Y,R17
;	text -> Y+1
;	widthCharBuf -> R17
	LDD  R30,Y+1
	LDI  R31,0
	SBIW R30,32
	SUBI R30,LOW(-_codeFontIncX*2)
	SBCI R31,HIGH(-_codeFontIncX*2)
	LPM  R17,Z
	MOV  R6,R4
_0x49:
	MOV  R30,R4
	LDI  R31,0
	ADIW R30,14
	MOV  R26,R6
	LDI  R27,0
	CP   R26,R30
	CPC  R27,R31
	BRGE _0x4A
	MOV  R7,R5
_0x4C:
	MOV  R26,R17
	CLR  R27
	MOV  R30,R5
	LDI  R31,0
	ADD  R30,R26
	ADC  R31,R27
	MOV  R26,R7
	LDI  R27,0
	CP   R26,R30
	CPC  R27,R31
	BRGE _0x4D
	LDD  R30,Y+1
	LDI  R31,0
	SBIW R30,32
	LDI  R26,LOW(14)
	LDI  R27,HIGH(14)
	RCALL __MULW12U
	SUBI R30,LOW(-_codeFont*2)
	SBCI R31,HIGH(-_codeFont*2)
	MOVW R22,R30
	MOV  R26,R6
	CLR  R27
	MOV  R30,R4
	RCALL SUBOPT_0x3
	ADD  R30,R22
	ADC  R31,R23
	LPM  R22,Z
	MOV  R26,R7
	CLR  R27
	MOV  R30,R5
	RCALL SUBOPT_0x3
	LDI  R26,LOW(128)
	LDI  R27,HIGH(128)
	RCALL __LSRW12
	MOV  R26,R22
	LDI  R27,0
	AND  R30,R26
	AND  R31,R27
	SBIW R30,0
	BREQ _0x4E
	RCALL SUBOPT_0x2
	LDI  R26,LOW(1)
	RJMP _0x66
_0x4E:
	RCALL SUBOPT_0x2
	LDI  R26,LOW(0)
_0x66:
	RCALL _MatrixSetup
	INC  R7
	RJMP _0x4C
_0x4D:
	INC  R6
	RJMP _0x49
_0x4A:
	MOV  R30,R17
	SUBI R30,-LOW(1)
	ADD  R5,R30
	LDD  R17,Y+0
	RJMP _0x2060001
; .FEND
_Matrix_PrintString:
; .FSTART _Matrix_PrintString
	ST   -Y,R27
	ST   -Y,R26
;	*string -> Y+0
_0x50:
	LD   R26,Y
	LDD  R27,Y+1
	LD   R30,X
	CPI  R30,0
	BREQ _0x52
	LD   R26,X
	RCALL _Matrix_PrintText
	LD   R30,Y
	LDD  R31,Y+1
	ADIW R30,1
	ST   Y,R30
	STD  Y+1,R31
	RJMP _0x50
_0x52:
_0x2060001:
	ADIW R28,2
	RET
; .FEND
;
;unsigned char flagFrameDataValid = 0;
;// USART Receiver interrupt service routine
;interrupt [USART_RXC] void usart_rx_isr(void)
; 0000 000B {
_usart_rx_isr:
; .FSTART _usart_rx_isr
	RCALL SUBOPT_0x4
; 0000 000C 	unsigned char dataRec=UDR;        //data recieved from UART
; 0000 000D 
; 0000 000E     if(flagFrameDataValid){
	ST   -Y,R17
;	dataRec -> R17
	IN   R17,12
	TST  R9
	BREQ _0x53
; 0000 000F         switch(dataRec){
	MOV  R30,R17
	LDI  R31,0
; 0000 0010             case '#':
	CPI  R30,LOW(0x23)
	LDI  R26,HIGH(0x23)
	CPC  R31,R26
	BRNE _0x57
; 0000 0011                 flagFrameDataValid=0;
	CLR  R9
; 0000 0012                 break;
	RJMP _0x56
; 0000 0013 
; 0000 0014             case '&':
_0x57:
	CPI  R30,LOW(0x26)
	LDI  R26,HIGH(0x26)
	CPC  R31,R26
	BRNE _0x59
; 0000 0015                 Matrix_SelectPos(3,17);
	RCALL SUBOPT_0x5
	LDI  R26,LOW(17)
	RCALL _Matrix_SelectPos
; 0000 0016                 break;
	RJMP _0x56
; 0000 0017 
; 0000 0018             default:
_0x59:
; 0000 0019                 Matrix_PrintText(dataRec);
	MOV  R26,R17
	RCALL _Matrix_PrintText
; 0000 001A                 break;
; 0000 001B         }
_0x56:
; 0000 001C     }
; 0000 001D 
; 0000 001E     if(dataRec == '$' && !flagFrameDataValid){
_0x53:
	CPI  R17,36
	BRNE _0x5B
	TST  R9
	BREQ _0x5C
_0x5B:
	RJMP _0x5A
_0x5C:
; 0000 001F         Matrix_ClearFromTo(0,0,64,32);
	LDI  R30,LOW(0)
	ST   -Y,R30
	ST   -Y,R30
	LDI  R30,LOW(64)
	ST   -Y,R30
	LDI  R26,LOW(32)
	RCALL _Matrix_ClearFromTo
; 0000 0020         Matrix_SelectPos(3,1);
	RCALL SUBOPT_0x5
	LDI  R26,LOW(1)
	RCALL _Matrix_SelectPos
; 0000 0021         flagFrameDataValid=1;
	LDI  R30,LOW(1)
	MOV  R9,R30
; 0000 0022     }
; 0000 0023 }
_0x5A:
	LD   R17,Y+
	RJMP _0x67
; .FEND
;
;// Timer 0 overflow interrupt service routine
;unsigned char interCheck = 0;
;interrupt [TIM0_OVF] void timer0_ovf_isr(void)
; 0000 0028 {
_timer0_ovf_isr:
; .FSTART _timer0_ovf_isr
	RCALL SUBOPT_0x4
; 0000 0029 // Reinitialize Timer 0 value
; 0000 002A //TCNT0=0x83;     //2ms    //2*2ms timer + (4 line * 2ms pwm) = 12ms => 80Hz
; 0000 002B TCNT0=0x06;    //4ms    //2*4ms timer + (4 line * 2ms pwm) = 16ms => 60Hz
	LDI  R30,LOW(6)
	OUT  0x32,R30
; 0000 002C //TCNT0=0x83;    //8ms        => 40Hz
; 0000 002D // Place your code here
; 0000 002E     interCheck++;
	INC  R8
; 0000 002F     if(interCheck == 2)
	LDI  R30,LOW(2)
	CP   R30,R8
	BRNE _0x5D
; 0000 0030     {
; 0000 0031         TimerHandlerShowLed();
	RCALL _TimerHandlerShowLed
; 0000 0032         interCheck=0;
	CLR  R8
; 0000 0033     }
; 0000 0034 }
_0x5D:
_0x67:
	LD   R30,Y+
	OUT  SREG,R30
	LD   R31,Y+
	LD   R30,Y+
	LD   R27,Y+
	LD   R26,Y+
	LD   R25,Y+
	LD   R24,Y+
	LD   R23,Y+
	LD   R22,Y+
	LD   R15,Y+
	LD   R1,Y+
	LD   R0,Y+
	RETI
; .FEND
;
;void main(void)
; 0000 0037 {
_main:
; .FSTART _main
; 0000 0038 // Declare your local variables here
; 0000 0039 
; 0000 003A // Input/Output Ports initialization
; 0000 003B // Port B initialization
; 0000 003C // Function: Bit7=In Bit6=In Bit5=Out Bit4=Out Bit3=Out Bit2=Out Bit1=Out Bit0=Out
; 0000 003D DDRB=(0<<DDB7) | (0<<DDB6) | (1<<DDB5) | (1<<DDB4) | (1<<DDB3) | (1<<DDB2) | (1<<DDB1) | (1<<DDB0);
	LDI  R30,LOW(63)
	OUT  0x17,R30
; 0000 003E // State: Bit7=T Bit6=T Bit5=0 Bit4=0 Bit3=0 Bit2=0 Bit1=0 Bit0=0
; 0000 003F PORTB=(0<<PORTB7) | (0<<PORTB6) | (0<<PORTB5) | (0<<PORTB4) | (0<<PORTB3) | (0<<PORTB2) | (0<<PORTB1) | (0<<PORTB0);
	LDI  R30,LOW(0)
	OUT  0x18,R30
; 0000 0040 
; 0000 0041 // Port C initialization
; 0000 0042 // Function: Bit6=In Bit5=Out Bit4=Out Bit3=In Bit2=In Bit1=In Bit0=In
; 0000 0043 DDRC=(0<<DDC6) | (1<<DDC5) | (1<<DDC4) | (0<<DDC3) | (0<<DDC2) | (0<<DDC1) | (0<<DDC0);
	LDI  R30,LOW(48)
	OUT  0x14,R30
; 0000 0044 // State: Bit6=T Bit5=T Bit4=0 Bit3=T Bit2=T Bit1=T Bit0=T
; 0000 0045 PORTC=(0<<PORTC6) | (0<<PORTC5) | (0<<PORTC4) | (0<<PORTC3) | (0<<PORTC2) | (0<<PORTC1) | (0<<PORTC0);
	LDI  R30,LOW(0)
	OUT  0x15,R30
; 0000 0046 
; 0000 0047 // Port D initialization
; 0000 0048 // Function: Bit7=Out Bit6=In Bit5=In Bit4=In Bit3=In Bit2=In Bit1=In Bit0=In
; 0000 0049 DDRD=(1<<DDD7) | (0<<DDD6) | (0<<DDD5) | (0<<DDD4) | (0<<DDD3) | (0<<DDD2) | (0<<DDD1) | (0<<DDD0);
	LDI  R30,LOW(128)
	OUT  0x11,R30
; 0000 004A // State: Bit7=T Bit6=T Bit5=T Bit4=T Bit3=T Bit2=T Bit1=T Bit0=T
; 0000 004B PORTD=(0<<PORTD7) | (0<<PORTD6) | (0<<PORTD5) | (0<<PORTD4) | (0<<PORTD3) | (0<<PORTD2) | (0<<PORTD1) | (0<<PORTD0);
	LDI  R30,LOW(0)
	OUT  0x12,R30
; 0000 004C 
; 0000 004D // Timer/Counter 0 initialization
; 0000 004E // Clock source: System Clock
; 0000 004F // Clock value: 62.500 kHz
; 0000 0050 TCCR0=(1<<CS02) | (0<<CS01) | (0<<CS00);
	LDI  R30,LOW(4)
	OUT  0x33,R30
; 0000 0051 TCNT0=0x06;
	LDI  R30,LOW(6)
	OUT  0x32,R30
; 0000 0052 
; 0000 0053 // Timer(s)/Counter(s) Interrupt(s) initialization
; 0000 0054 TIMSK=(0<<OCIE2) | (0<<TOIE2) | (0<<TICIE1) | (0<<OCIE1A) | (0<<OCIE1B) | (0<<TOIE1) | (1<<TOIE0);
	LDI  R30,LOW(1)
	OUT  0x39,R30
; 0000 0055 
; 0000 0056 // USART initialization
; 0000 0057 // Communication Parameters: 8 Data, 1 Stop, No Parity
; 0000 0058 // USART Receiver: On
; 0000 0059 // USART Transmitter: Off
; 0000 005A // USART Mode: Asynchronous
; 0000 005B // USART Baud Rate: 600 (Double Speed Mode)
; 0000 005C UCSRA=(0<<RXC) | (0<<TXC) | (0<<UDRE) | (0<<FE) | (0<<DOR) | (0<<UPE) | (1<<U2X) | (0<<MPCM);
	LDI  R30,LOW(2)
	OUT  0xB,R30
; 0000 005D UCSRB=(1<<RXCIE) | (0<<TXCIE) | (0<<UDRIE) | (1<<RXEN) | (0<<TXEN) | (0<<UCSZ2) | (0<<RXB8) | (0<<TXB8);
	LDI  R30,LOW(144)
	OUT  0xA,R30
; 0000 005E UCSRC=(1<<URSEL) | (0<<UMSEL) | (0<<UPM1) | (0<<UPM0) | (0<<USBS) | (1<<UCSZ1) | (1<<UCSZ0) | (0<<UCPOL);
	LDI  R30,LOW(134)
	OUT  0x20,R30
; 0000 005F UBRRH=0x0D;
	LDI  R30,LOW(13)
	OUT  0x20,R30
; 0000 0060 UBRRL=0x04;
	LDI  R30,LOW(4)
	OUT  0x9,R30
; 0000 0061 
; 0000 0062 // Global enable interrupts
; 0000 0063 #asm("sei")
	sei
; 0000 0064 
; 0000 0065 Matrix_SelectPos(3,1);
	RCALL SUBOPT_0x5
	LDI  R26,LOW(1)
	RCALL _Matrix_SelectPos
; 0000 0066 Matrix_PrintString("0");
	__POINTW2MN _0x5E,0
	RCALL _Matrix_PrintString
; 0000 0067 Matrix_SelectPos(3,17);
	RCALL SUBOPT_0x5
	LDI  R26,LOW(17)
	RCALL _Matrix_SelectPos
; 0000 0068 Matrix_PrintString("0");
	__POINTW2MN _0x5E,2
	RCALL _Matrix_PrintString
; 0000 0069 
; 0000 006A while (1)
_0x5F:
; 0000 006B       {
; 0000 006C       // Place your code here
; 0000 006D 
; 0000 006E       }
	RJMP _0x5F
; 0000 006F }
_0x62:
	RJMP _0x62
; .FEND

	.DSEG
_0x5E:
	.BYTE 0x4
	#ifndef __SLEEP_DEFINED__
	#define __SLEEP_DEFINED__
	.EQU __se_bit=0x80
	.EQU __sm_mask=0x70
	.EQU __sm_powerdown=0x20
	.EQU __sm_powersave=0x30
	.EQU __sm_standby=0x60
	.EQU __sm_ext_standby=0x70
	.EQU __sm_adc_noise_red=0x10
	.SET power_ctrl_reg=mcucr
	#endif

	.CSEG

	.CSEG

	.CSEG

	.DSEG
_bufferDisplay:
	.BYTE 0x100

	.CSEG
;OPTIMIZER ADDED SUBROUTINE, CALLED 3 TIMES, CODE SIZE REDUCTION:2 WORDS
SUBOPT_0x0:
	RCALL __LSLW3
	SUBI R30,LOW(-_bufferDisplay)
	SBCI R31,HIGH(-_bufferDisplay)
	RET

;OPTIMIZER ADDED SUBROUTINE, CALLED 2 TIMES, CODE SIZE REDUCTION:15 WORDS
SUBOPT_0x1:
	MOVW R22,R30
	LDD  R26,Y+3
	LDD  R27,Y+3+1
	LDI  R30,LOW(8)
	LDI  R31,HIGH(8)
	RCALL __DIVW21
	ADD  R30,R22
	ADC  R31,R23
	MOVW R22,R30
	LD   R1,Z
	LDD  R30,Y+3
	LDD  R31,Y+3+1
	LDI  R26,LOW(7)
	LDI  R27,HIGH(7)
	RCALL __MANDW12
	LDI  R26,LOW(128)
	LDI  R27,HIGH(128)
	RCALL __LSRW12
	RET

;OPTIMIZER ADDED SUBROUTINE, CALLED 3 TIMES, CODE SIZE REDUCTION:12 WORDS
SUBOPT_0x2:
	MOV  R30,R7
	LDI  R31,0
	ST   -Y,R31
	ST   -Y,R30
	MOV  R30,R6
	LDI  R31,0
	ST   -Y,R31
	ST   -Y,R30
	RET

;OPTIMIZER ADDED SUBROUTINE, CALLED 2 TIMES, CODE SIZE REDUCTION:1 WORDS
SUBOPT_0x3:
	LDI  R31,0
	RCALL __SWAPW12
	SUB  R30,R26
	SBC  R31,R27
	RET

;OPTIMIZER ADDED SUBROUTINE, CALLED 2 TIMES, CODE SIZE REDUCTION:10 WORDS
SUBOPT_0x4:
	ST   -Y,R0
	ST   -Y,R1
	ST   -Y,R15
	ST   -Y,R22
	ST   -Y,R23
	ST   -Y,R24
	ST   -Y,R25
	ST   -Y,R26
	ST   -Y,R27
	ST   -Y,R30
	ST   -Y,R31
	IN   R30,SREG
	ST   -Y,R30
	RET

;OPTIMIZER ADDED SUBROUTINE, CALLED 4 TIMES, CODE SIZE REDUCTION:1 WORDS
SUBOPT_0x5:
	LDI  R30,LOW(3)
	ST   -Y,R30
	RET


	.CSEG
__ANEGW1:
	NEG  R31
	NEG  R30
	SBCI R31,0
	RET

__LSRB12:
	TST  R30
	MOV  R0,R30
	MOV  R30,R26
	BREQ __LSRB12R
__LSRB12L:
	LSR  R30
	DEC  R0
	BRNE __LSRB12L
__LSRB12R:
	RET

__LSRW12:
	TST  R30
	MOV  R0,R30
	MOVW R30,R26
	BREQ __LSRW12R
__LSRW12L:
	LSR  R31
	ROR  R30
	DEC  R0
	BRNE __LSRW12L
__LSRW12R:
	RET

__LSLW3:
	LSL  R30
	ROL  R31
__LSLW2:
	LSL  R30
	ROL  R31
	LSL  R30
	ROL  R31
	RET

__MULW12U:
	MUL  R31,R26
	MOV  R31,R0
	MUL  R30,R27
	ADD  R31,R0
	MUL  R30,R26
	MOV  R30,R0
	ADD  R31,R1
	RET

__DIVW21U:
	CLR  R0
	CLR  R1
	LDI  R25,16
__DIVW21U1:
	LSL  R26
	ROL  R27
	ROL  R0
	ROL  R1
	SUB  R0,R30
	SBC  R1,R31
	BRCC __DIVW21U2
	ADD  R0,R30
	ADC  R1,R31
	RJMP __DIVW21U3
__DIVW21U2:
	SBR  R26,1
__DIVW21U3:
	DEC  R25
	BRNE __DIVW21U1
	MOVW R30,R26
	MOVW R26,R0
	RET

__DIVW21:
	RCALL __CHKSIGNW
	RCALL __DIVW21U
	BRTC __DIVW211
	RCALL __ANEGW1
__DIVW211:
	RET

__MANDW12:
	CLT
	SBRS R31,7
	RJMP __MANDW121
	RCALL __ANEGW1
	SET
__MANDW121:
	AND  R30,R26
	AND  R31,R27
	BRTC __MANDW122
	RCALL __ANEGW1
__MANDW122:
	RET

__CHKSIGNW:
	CLT
	SBRS R31,7
	RJMP __CHKSW1
	RCALL __ANEGW1
	SET
__CHKSW1:
	SBRS R27,7
	RJMP __CHKSW2
	COM  R26
	COM  R27
	ADIW R26,1
	BLD  R0,0
	INC  R0
	BST  R0,0
__CHKSW2:
	RET

__SWAPW12:
	MOV  R1,R27
	MOV  R27,R31
	MOV  R31,R1

__SWAPB12:
	MOV  R1,R26
	MOV  R26,R30
	MOV  R30,R1
	RET

__SAVELOCR6:
	ST   -Y,R21
__SAVELOCR5:
	ST   -Y,R20
__SAVELOCR4:
	ST   -Y,R19
__SAVELOCR3:
	ST   -Y,R18
__SAVELOCR2:
	ST   -Y,R17
	ST   -Y,R16
	RET

__LOADLOCR6:
	LDD  R21,Y+5
__LOADLOCR5:
	LDD  R20,Y+4
__LOADLOCR4:
	LDD  R19,Y+3
__LOADLOCR3:
	LDD  R18,Y+2
__LOADLOCR2:
	LDD  R17,Y+1
	LD   R16,Y
	RET

;END OF CODE MARKER
__END_OF_CODE:
